target datalayout = "e-m:e-p270:32:32-p271:32:32-p272:64:64-i64:64-i128:128-f80:128-n8:16:32:64-S128"
target triple = "x86_64-pc-linux-gnu"

%class.FileIO = type <{ %struct.duFileIO, ptr, i32, [4 x i8] }>
%struct.duFileIO = type { ptr }

@_ZTV6FileIO = dso_local unnamed_addr constant { [8 x ptr] } { [8 x ptr] [ptr null, ptr @_ZTI6FileIO, ptr @_ZN6FileIOD1Ev, ptr @_ZN6FileIOD0Ev, ptr @_ZNK6FileIO9isWritingEv, ptr @_ZNK6FileIO9isReadingEv, ptr @_ZN6FileIO5writeEPKvm, ptr @_ZN6FileIO4readEPvm] }, align 8

; Function Attrs: noreturn nounwind uwtable
define linkonce_odr hidden void @__clang_call_terminate(ptr noundef %0) #9 comdat {
  %2 = call ptr @__cxa_begin_catch(ptr %0) #8
  call void @_ZSt9terminatev() #11
  unreachable
}

; Function Attrs: mustprogress nounwind uwtable
define dso_local void @_ZN6FileIOD2Ev(ptr noundef nonnull align 8 dereferenceable(20) %0) unnamed_addr #1 align 2 personality ptr @__gxx_personality_v0 {
  %2 = alloca ptr, align 8
  store ptr %0, ptr %2, align 8
  %3 = load ptr, ptr %2, align 8
  store ptr getelementptr inbounds ({ [8 x ptr] }, ptr @_ZTV6FileIO, i32 0, i32 0, i32 2), ptr %3, align 8
  %4 = getelementptr inbounds %class.FileIO, ptr %3, i32 0, i32 1
  %5 = load ptr, ptr %4, align 8
  %6 = icmp ne ptr %5, null
  br i1 %6, label %7, label %12

7:                                                ; preds = %1
  %8 = getelementptr inbounds %class.FileIO, ptr %3, i32 0, i32 1
  %9 = load ptr, ptr %8, align 8
  %10 = invoke i32 @fclose(ptr noundef %9)
          to label %11 unwind label %13

11:                                               ; preds = %7
  br label %12

12:                                               ; preds = %11, %1
  call void @_ZN8duFileIOD2Ev(ptr noundef nonnull align 8 dereferenceable(8) %3) #8
  ret void

13:                                               ; preds = %7
  %14 = landingpad { ptr, i32 }
          catch ptr null
  %15 = extractvalue { ptr, i32 } %14, 0
  call void @__clang_call_terminate(ptr %15) #11
  unreachable
}